target datalayout = "e-m:e-p270:32:32-p271:32:32-p272:64:64-i64:64-i128:128-f80:128-n8:16:32:64-S128"
target triple = "x86_64-pc-linux-gnu"

%struct.cmsysProcess_s = type { ptr, i32, [3 x i32], [3 x i32], i32, [1024 x i8], ptr, i32, double, ptr, i32, i32, i32, i32, i32, %struct.kwsysProcessTime_s, %struct.kwsysProcessTime_s, i32, i32, %struct.fd_set, i32, i32, i32, [1025 x i8], ptr, ptr, ptr, ptr, ptr, i32, i32, i32, [2 x i32], [2 x i32], [2 x i32], i32, ptr }
%struct.kwsysProcessTime_s = type { i64, i64 }
%struct.fd_set = type { [16 x i64] }
%struct.timeval = type { i64, i64 }
%struct.timespec = type { i64, i64 }

; Function Attrs: nounwind uwtable
define internal i32 @kwsysProcessTimeLess(i64 %0, i64 %1, i64 %2, i64 %3) #0 {
  %5 = alloca %struct.kwsysProcessTime_s, align 8
  %6 = alloca %struct.kwsysProcessTime_s, align 8
  %7 = getelementptr inbounds nuw { i64, i64 }, ptr %5, i32 0, i32 0
  store i64 %0, ptr %7, align 8
  %8 = getelementptr inbounds nuw { i64, i64 }, ptr %5, i32 0, i32 1
  store i64 %1, ptr %8, align 8
  %9 = getelementptr inbounds nuw { i64, i64 }, ptr %6, i32 0, i32 0
  store i64 %2, ptr %9, align 8
  %10 = getelementptr inbounds nuw { i64, i64 }, ptr %6, i32 0, i32 1
  store i64 %3, ptr %10, align 8
  %11 = getelementptr inbounds nuw %struct.kwsysProcessTime_s, ptr %5, i32 0, i32 0
  %12 = load i64, ptr %11, align 8, !tbaa !114
  %13 = getelementptr inbounds nuw %struct.kwsysProcessTime_s, ptr %6, i32 0, i32 0
  %14 = load i64, ptr %13, align 8, !tbaa !114
  %15 = icmp slt i64 %12, %14
  br i1 %15, label %30, label %16

16:                                               ; preds = %4
  %17 = getelementptr inbounds nuw %struct.kwsysProcessTime_s, ptr %5, i32 0, i32 0
  %18 = load i64, ptr %17, align 8, !tbaa !114
  %19 = getelementptr inbounds nuw %struct.kwsysProcessTime_s, ptr %6, i32 0, i32 0
  %20 = load i64, ptr %19, align 8, !tbaa !114
  %21 = icmp eq i64 %18, %20
  br i1 %21, label %22, label %28

22:                                               ; preds = %16
  %23 = getelementptr inbounds nuw %struct.kwsysProcessTime_s, ptr %5, i32 0, i32 1
  %24 = load i64, ptr %23, align 8, !tbaa !115
  %25 = getelementptr inbounds nuw %struct.kwsysProcessTime_s, ptr %6, i32 0, i32 1
  %26 = load i64, ptr %25, align 8, !tbaa !115
  %27 = icmp slt i64 %24, %26
  br label %28

28:                                               ; preds = %22, %16
  %29 = phi i1 [ false, %16 ], [ %27, %22 ]
  br label %30

30:                                               ; preds = %28, %4
  %31 = phi i1 [ true, %4 ], [ %29, %28 ]
  %32 = zext i1 %31 to i32
  ret i32 %32
}

; Function Attrs: nounwind uwtable
define internal { i64, i64 } @kwsysProcessTimeGetCurrent() #0 {
  %1 = alloca %struct.kwsysProcessTime_s, align 8
  %2 = alloca %struct.timeval, align 8
  %3 = alloca %struct.timespec, align 8
  call void @llvm.lifetime.start.p0(i64 16, ptr %2) #11
  call void @llvm.lifetime.start.p0(i64 16, ptr %3) #11
  %4 = call i32 @clock_gettime(i32 noundef 1, ptr noundef %3) #11
  %5 = getelementptr inbounds nuw %struct.timespec, ptr %3, i32 0, i32 0
  %6 = load i64, ptr %5, align 8, !tbaa !108
  %7 = getelementptr inbounds nuw %struct.timeval, ptr %2, i32 0, i32 0
  store i64 %6, ptr %7, align 8, !tbaa !110
  %8 = getelementptr inbounds nuw %struct.timespec, ptr %3, i32 0, i32 1
  %9 = load i64, ptr %8, align 8, !tbaa !112
  %10 = sdiv i64 %9, 1000
  %11 = getelementptr inbounds nuw %struct.timeval, ptr %2, i32 0, i32 1
  store i64 %10, ptr %11, align 8, !tbaa !113
  %12 = getelementptr inbounds nuw %struct.timeval, ptr %2, i32 0, i32 0
  %13 = load i64, ptr %12, align 8, !tbaa !110
  %14 = getelementptr inbounds nuw %struct.kwsysProcessTime_s, ptr %1, i32 0, i32 0
  store i64 %13, ptr %14, align 8, !tbaa !114
  %15 = getelementptr inbounds nuw %struct.timeval, ptr %2, i32 0, i32 1
  %16 = load i64, ptr %15, align 8, !tbaa !113
  %17 = getelementptr inbounds nuw %struct.kwsysProcessTime_s, ptr %1, i32 0, i32 1
  store i64 %16, ptr %17, align 8, !tbaa !115
  call void @llvm.lifetime.end.p0(i64 16, ptr %3) #11
  call void @llvm.lifetime.end.p0(i64 16, ptr %2) #11
  %18 = load { i64, i64 }, ptr %1, align 8
  ret { i64, i64 } %18
}

; Function Attrs: nounwind uwtable
define internal { i64, i64 } @kwsysProcessTimeAdd(i64 %0, i64 %1, i64 %2, i64 %3) #0 {
  %5 = alloca %struct.kwsysProcessTime_s, align 8
  %6 = alloca %struct.kwsysProcessTime_s, align 8
  %7 = alloca %struct.kwsysProcessTime_s, align 8
  %8 = getelementptr inbounds nuw { i64, i64 }, ptr %6, i32 0, i32 0
  store i64 %0, ptr %8, align 8
  %9 = getelementptr inbounds nuw { i64, i64 }, ptr %6, i32 0, i32 1
  store i64 %1, ptr %9, align 8
  %10 = getelementptr inbounds nuw { i64, i64 }, ptr %7, i32 0, i32 0
  store i64 %2, ptr %10, align 8
  %11 = getelementptr inbounds nuw { i64, i64 }, ptr %7, i32 0, i32 1
  store i64 %3, ptr %11, align 8
  %12 = getelementptr inbounds nuw %struct.kwsysProcessTime_s, ptr %6, i32 0, i32 0
  %13 = load i64, ptr %12, align 8, !tbaa !114
  %14 = getelementptr inbounds nuw %struct.kwsysProcessTime_s, ptr %7, i32 0, i32 0
  %15 = load i64, ptr %14, align 8, !tbaa !114
  %16 = add nsw i64 %13, %15
  %17 = getelementptr inbounds nuw %struct.kwsysProcessTime_s, ptr %5, i32 0, i32 0
  store i64 %16, ptr %17, align 8, !tbaa !114
  %18 = getelementptr inbounds nuw %struct.kwsysProcessTime_s, ptr %6, i32 0, i32 1
  %19 = load i64, ptr %18, align 8, !tbaa !115
  %20 = getelementptr inbounds nuw %struct.kwsysProcessTime_s, ptr %7, i32 0, i32 1
  %21 = load i64, ptr %20, align 8, !tbaa !115
  %22 = add nsw i64 %19, %21
  %23 = getelementptr inbounds nuw %struct.kwsysProcessTime_s, ptr %5, i32 0, i32 1
  store i64 %22, ptr %23, align 8, !tbaa !115
  %24 = getelementptr inbounds nuw %struct.kwsysProcessTime_s, ptr %5, i32 0, i32 1
  %25 = load i64, ptr %24, align 8, !tbaa !115
  %26 = icmp sge i64 %25, 1000000
  br i1 %26, label %27, label %34

27:                                               ; preds = %4
  %28 = getelementptr inbounds nuw %struct.kwsysProcessTime_s, ptr %5, i32 0, i32 1
  %29 = load i64, ptr %28, align 8, !tbaa !115
  %30 = sub nsw i64 %29, 1000000
  store i64 %30, ptr %28, align 8, !tbaa !115
  %31 = getelementptr inbounds nuw %struct.kwsysProcessTime_s, ptr %5, i32 0, i32 0
  %32 = load i64, ptr %31, align 8, !tbaa !114
  %33 = add nsw i64 %32, 1
  store i64 %33, ptr %31, align 8, !tbaa !114
  br label %34

34:                                               ; preds = %27, %4
  %35 = load { i64, i64 }, ptr %5, align 8
  ret { i64, i64 } %35
}

; Function Attrs: nounwind uwtable
define internal { i64, i64 } @kwsysProcessTimeFromDouble(double noundef %0) #0 {
  %2 = alloca %struct.kwsysProcessTime_s, align 8
  %3 = alloca double, align 8
  store double %0, ptr %3, align 8, !tbaa !53
  %4 = load double, ptr %3, align 8, !tbaa !53
  %5 = fptosi double %4 to i64
  %6 = getelementptr inbounds nuw %struct.kwsysProcessTime_s, ptr %2, i32 0, i32 0
  store i64 %5, ptr %6, align 8, !tbaa !114
  %7 = load double, ptr %3, align 8, !tbaa !53
  %8 = getelementptr inbounds nuw %struct.kwsysProcessTime_s, ptr %2, i32 0, i32 0
  %9 = load i64, ptr %8, align 8, !tbaa !114
  %10 = sitofp i64 %9 to double
  %11 = fsub double %7, %10
  %12 = fmul double %11, 1.000000e+06
  %13 = fptosi double %12 to i64
  %14 = getelementptr inbounds nuw %struct.kwsysProcessTime_s, ptr %2, i32 0, i32 1
  store i64 %13, ptr %14, align 8, !tbaa !115
  %15 = load { i64, i64 }, ptr %2, align 8
  ret { i64, i64 } %15
}

; Function Attrs: nounwind uwtable
define internal i32 @kwsysProcessGetTimeoutTime(ptr noundef %0, ptr noundef %1, ptr noundef %2) #0 {
  %4 = alloca i32, align 4
  %5 = alloca ptr, align 8
  %6 = alloca ptr, align 8
  %7 = alloca ptr, align 8
  %8 = alloca %struct.kwsysProcessTime_s, align 8
  %9 = alloca %struct.kwsysProcessTime_s, align 8
  %10 = alloca %struct.kwsysProcessTime_s, align 8
  %11 = alloca %struct.kwsysProcessTime_s, align 8
  %12 = alloca %struct.kwsysProcessTime_s, align 8
  %13 = alloca i32, align 4
  store ptr %0, ptr %5, align 8, !tbaa !4
  store ptr %1, ptr %6, align 8, !tbaa !27
  store ptr %2, ptr %7, align 8, !tbaa !129
  %14 = load ptr, ptr %5, align 8, !tbaa !4
  %15 = getelementptr inbounds nuw %struct.cmsysProcess_s, ptr %14, i32 0, i32 8
  %16 = load double, ptr %15, align 8, !tbaa !54
  %17 = fcmp ogt double %16, 0.000000e+00
  br i1 %17, label %18, label %50

18:                                               ; preds = %3
  %19 = load ptr, ptr %5, align 8, !tbaa !4
  %20 = getelementptr inbounds nuw %struct.cmsysProcess_s, ptr %19, i32 0, i32 16
  %21 = getelementptr inbounds nuw %struct.kwsysProcessTime_s, ptr %20, i32 0, i32 0
  %22 = load i64, ptr %21, align 8, !tbaa !55
  %23 = icmp slt i64 %22, 0
  br i1 %23, label %24, label %50

24:                                               ; preds = %18
  call void @llvm.lifetime.start.p0(i64 16, ptr %8) #11
  %25 = load ptr, ptr %5, align 8, !tbaa !4
  %26 = getelementptr inbounds nuw %struct.cmsysProcess_s, ptr %25, i32 0, i32 8
  %27 = load double, ptr %26, align 8, !tbaa !54
  %28 = call { i64, i64 } @kwsysProcessTimeFromDouble(double noundef %27)
  %29 = getelementptr inbounds nuw { i64, i64 }, ptr %8, i32 0, i32 0
  %30 = extractvalue { i64, i64 } %28, 0
  store i64 %30, ptr %29, align 8
  %31 = getelementptr inbounds nuw { i64, i64 }, ptr %8, i32 0, i32 1
  %32 = extractvalue { i64, i64 } %28, 1
  store i64 %32, ptr %31, align 8
  %33 = load ptr, ptr %5, align 8, !tbaa !4
  %34 = getelementptr inbounds nuw %struct.cmsysProcess_s, ptr %33, i32 0, i32 16
  call void @llvm.lifetime.start.p0(i64 16, ptr %9) #11
  %35 = load ptr, ptr %5, align 8, !tbaa !4
  %36 = getelementptr inbounds nuw %struct.cmsysProcess_s, ptr %35, i32 0, i32 15
  %37 = getelementptr inbounds nuw { i64, i64 }, ptr %36, i32 0, i32 0
  %38 = load i64, ptr %37, align 8
  %39 = getelementptr inbounds nuw { i64, i64 }, ptr %36, i32 0, i32 1
  %40 = load i64, ptr %39, align 8
  %41 = getelementptr inbounds nuw { i64, i64 }, ptr %8, i32 0, i32 0
  %42 = load i64, ptr %41, align 8
  %43 = getelementptr inbounds nuw { i64, i64 }, ptr %8, i32 0, i32 1
  %44 = load i64, ptr %43, align 8
  %45 = call { i64, i64 } @kwsysProcessTimeAdd(i64 %38, i64 %40, i64 %42, i64 %44)
  %46 = getelementptr inbounds nuw { i64, i64 }, ptr %9, i32 0, i32 0
  %47 = extractvalue { i64, i64 } %45, 0
  store i64 %47, ptr %46, align 8
  %48 = getelementptr inbounds nuw { i64, i64 }, ptr %9, i32 0, i32 1
  %49 = extractvalue { i64, i64 } %45, 1
  store i64 %49, ptr %48, align 8
  call void @llvm.memcpy.p0.p0.i64(ptr align 8 %34, ptr align 8 %9, i64 16, i1 false), !tbaa.struct !68
  call void @llvm.lifetime.end.p0(i64 16, ptr %9) #11
  call void @llvm.lifetime.end.p0(i64 16, ptr %8) #11
  br label %50

50:                                               ; preds = %24, %18, %3
  %51 = load ptr, ptr %7, align 8, !tbaa !129
  %52 = load ptr, ptr %5, align 8, !tbaa !4
  %53 = getelementptr inbounds nuw %struct.cmsysProcess_s, ptr %52, i32 0, i32 16
  call void @llvm.memcpy.p0.p0.i64(ptr align 8 %51, ptr align 8 %53, i64 16, i1 false), !tbaa.struct !68
  %54 = load ptr, ptr %6, align 8, !tbaa !27
  %55 = icmp ne ptr %54, null
  br i1 %55, label %56, label %104

56:                                               ; preds = %50
  call void @llvm.lifetime.start.p0(i64 16, ptr %10) #11
  %57 = call { i64, i64 } @kwsysProcessTimeGetCurrent()
  %58 = getelementptr inbounds nuw { i64, i64 }, ptr %10, i32 0, i32 0
  %59 = extractvalue { i64, i64 } %57, 0
  store i64 %59, ptr %58, align 8
  %60 = getelementptr inbounds nuw { i64, i64 }, ptr %10, i32 0, i32 1
  %61 = extractvalue { i64, i64 } %57, 1
  store i64 %61, ptr %60, align 8
  call void @llvm.lifetime.start.p0(i64 16, ptr %11) #11
  %62 = load ptr, ptr %6, align 8, !tbaa !27
  %63 = load double, ptr %62, align 8, !tbaa !53
  %64 = call { i64, i64 } @kwsysProcessTimeFromDouble(double noundef %63)
  %65 = getelementptr inbounds nuw { i64, i64 }, ptr %11, i32 0, i32 0
  %66 = extractvalue { i64, i64 } %64, 0
  store i64 %66, ptr %65, align 8
  %67 = getelementptr inbounds nuw { i64, i64 }, ptr %11, i32 0, i32 1
  %68 = extractvalue { i64, i64 } %64, 1
  store i64 %68, ptr %67, align 8
  call void @llvm.lifetime.start.p0(i64 16, ptr %12) #11
  %69 = getelementptr inbounds nuw { i64, i64 }, ptr %10, i32 0, i32 0
  %70 = load i64, ptr %69, align 8
  %71 = getelementptr inbounds nuw { i64, i64 }, ptr %10, i32 0, i32 1
  %72 = load i64, ptr %71, align 8
  %73 = getelementptr inbounds nuw { i64, i64 }, ptr %11, i32 0, i32 0
  %74 = load i64, ptr %73, align 8
  %75 = getelementptr inbounds nuw { i64, i64 }, ptr %11, i32 0, i32 1
  %76 = load i64, ptr %75, align 8
  %77 = call { i64, i64 } @kwsysProcessTimeAdd(i64 %70, i64 %72, i64 %74, i64 %76)
  %78 = getelementptr inbounds nuw { i64, i64 }, ptr %12, i32 0, i32 0
  %79 = extractvalue { i64, i64 } %77, 0
  store i64 %79, ptr %78, align 8
  %80 = getelementptr inbounds nuw { i64, i64 }, ptr %12, i32 0, i32 1
  %81 = extractvalue { i64, i64 } %77, 1
  store i64 %81, ptr %80, align 8
  %82 = load ptr, ptr %7, align 8, !tbaa !129
  %83 = getelementptr inbounds nuw %struct.kwsysProcessTime_s, ptr %82, i32 0, i32 0
  %84 = load i64, ptr %83, align 8, !tbaa !114
  %85 = icmp slt i64 %84, 0
  br i1 %85, label %98, label %86

86:                                               ; preds = %56
  %87 = load ptr, ptr %7, align 8, !tbaa !129
  %88 = getelementptr inbounds nuw { i64, i64 }, ptr %12, i32 0, i32 0
  %89 = load i64, ptr %88, align 8
  %90 = getelementptr inbounds nuw { i64, i64 }, ptr %12, i32 0, i32 1
  %91 = load i64, ptr %90, align 8
  %92 = getelementptr inbounds nuw { i64, i64 }, ptr %87, i32 0, i32 0
  %93 = load i64, ptr %92, align 8
  %94 = getelementptr inbounds nuw { i64, i64 }, ptr %87, i32 0, i32 1
  %95 = load i64, ptr %94, align 8
  %96 = call i32 @kwsysProcessTimeLess(i64 %89, i64 %91, i64 %93, i64 %95)
  %97 = icmp ne i32 %96, 0
  br i1 %97, label %98, label %100

98:                                               ; preds = %86, %56
  %99 = load ptr, ptr %7, align 8, !tbaa !129
  call void @llvm.memcpy.p0.p0.i64(ptr align 8 %99, ptr align 8 %12, i64 16, i1 false), !tbaa.struct !68
  store i32 1, ptr %4, align 4
  store i32 1, ptr %13, align 4
  br label %101

100:                                              ; preds = %86
  store i32 0, ptr %13, align 4
  br label %101

101:                                              ; preds = %100, %98
  call void @llvm.lifetime.end.p0(i64 16, ptr %12) #11
  call void @llvm.lifetime.end.p0(i64 16, ptr %11) #11
  call void @llvm.lifetime.end.p0(i64 16, ptr %10) #11
  %102 = load i32, ptr %13, align 4
  switch i32 %102, label %107 [
    i32 0, label %103
    i32 1, label %105
  ]

103:                                              ; preds = %101
  br label %104

104:                                              ; preds = %103, %50
  store i32 0, ptr %4, align 4
  br label %105

105:                                              ; preds = %104, %101
  %106 = load i32, ptr %4, align 4
  ret i32 %106

107:                                              ; preds = %101
  unreachable
}