; Function Attrs: nounwind uwtable
define internal fastcc range(i32 0, 2) i32 @kwsysProcessGetTimeoutTime(ptr noundef nonnull captures(none) %0, ptr noundef readonly %1, ptr noundef nonnull captures(none) initializes((0, 16)) %2) unnamed_addr #4 {
  %4 = alloca %struct.timespec, align 8
  %5 = getelementptr inbounds nuw i8, ptr %0, i64 1080
  %6 = load double, ptr %5, align 8, !tbaa !49
  %7 = fcmp ogt double %6, 0.000000e+00
  br i1 %7, label %8, label %27

8:                                                ; preds = %3
  %9 = getelementptr inbounds nuw i8, ptr %0, i64 1136
  %10 = load i64, ptr %9, align 8, !tbaa !50
  %11 = icmp slt i64 %10, 0
  br i1 %11, label %12, label %27

12:                                               ; preds = %8
  %13 = fptosi double %6 to i64
  %14 = sitofp i64 %13 to double
  %15 = fsub double %6, %14
  %16 = fmul double %15, 1.000000e+06
  %17 = fptosi double %16 to i64
  %18 = getelementptr inbounds nuw i8, ptr %0, i64 1120
  %19 = load i64, ptr %18, align 8
  %20 = getelementptr inbounds nuw i8, ptr %0, i64 1128
  %21 = load i64, ptr %20, align 8
  %22 = add nsw i64 %19, %13
  %23 = add nsw i64 %21, %17
  %24 = icmp sgt i64 %23, 999999
  %25 = add nsw i64 %23, -1000000
  %26 = zext i1 %24 to i64
  %.sroa.03.0.i = add nsw i64 %22, %26
  %.sroa.4.0.i = select i1 %24, i64 %25, i64 %23
  store i64 %.sroa.03.0.i, ptr %9, align 8, !tbaa !77
  %.sroa.45.0..sroa_idx = getelementptr inbounds nuw i8, ptr %0, i64 1144
  store i64 %.sroa.4.0.i, ptr %.sroa.45.0..sroa_idx, align 8, !tbaa !77
  br label %27

27:                                               ; preds = %12, %8, %3
  %28 = getelementptr inbounds nuw i8, ptr %0, i64 1136
  tail call void @llvm.memcpy.p0.p0.i64(ptr noundef nonnull align 8 dereferenceable(16) %2, ptr noundef nonnull align 8 dereferenceable(16) %28, i64 16, i1 false), !tbaa.struct !109
  %.not = icmp eq ptr %1, null
  br i1 %.not, label %.thread, label %29

29:                                               ; preds = %27
  call void @llvm.lifetime.start.p0(i64 16, ptr nonnull %4) #25
  %30 = call i32 @clock_gettime(i32 noundef 1, ptr noundef nonnull %4) #25
  %31 = load i64, ptr %4, align 8, !tbaa !74
  %32 = getelementptr inbounds nuw i8, ptr %4, i64 8
  %33 = load i64, ptr %32, align 8, !tbaa !76
  %34 = sdiv i64 %33, 1000
  call void @llvm.lifetime.end.p0(i64 16, ptr nonnull %4) #25
  %35 = load double, ptr %1, align 8, !tbaa !110
  %36 = fptosi double %35 to i64
  %37 = sitofp i64 %36 to double
  %38 = fsub double %35, %37
  %39 = fmul double %38, 1.000000e+06
  %40 = fptosi double %39 to i64
  %41 = add nsw i64 %31, %36
  %42 = add nsw i64 %34, %40
  %43 = icmp sgt i64 %42, 999999
  %44 = add nsw i64 %42, -1000000
  %45 = zext i1 %43 to i64
  %.sroa.03.0.i31 = add nsw i64 %41, %45
  %.sroa.4.0.i32 = select i1 %43, i64 %44, i64 %42
  %46 = load i64, ptr %2, align 8, !tbaa !111
  %47 = icmp slt i64 %46, 0
  br i1 %47, label %54, label %48

48:                                               ; preds = %29
  %49 = getelementptr inbounds nuw i8, ptr %2, i64 8
  %50 = load i64, ptr %49, align 8
  %51 = icmp sge i64 %.sroa.03.0.i31, %46
  %52 = icmp ne i64 %.sroa.03.0.i31, %46
  %53 = icmp sge i64 %.sroa.4.0.i32, %50
  %.not41 = select i1 %52, i1 true, i1 %53
  %narrow.i.not = select i1 %51, i1 %.not41, i1 false
  br i1 %narrow.i.not, label %.thread, label %54

54:                                               ; preds = %29, %48
  store i64 %.sroa.03.0.i31, ptr %2, align 8, !tbaa !77
  %.sroa.5.0..sroa_idx = getelementptr inbounds nuw i8, ptr %2, i64 8
  store i64 %.sroa.4.0.i32, ptr %.sroa.5.0..sroa_idx, align 8, !tbaa !77
  br label %.thread

.thread:                                          ; preds = %48, %27, %54
  %.1 = phi i32 [ 1, %54 ], [ 0, %27 ], [ 0, %48 ]
  ret i32 %.1
}